target datalayout = "e-m:e-p270:32:32-p271:32:32-p272:64:64-i64:64-i128:128-f80:128-n8:16:32:64-S128"
target triple = "x86_64-pc-linux-gnu"

%struct._rtpstream_info = type { %struct._rtpstream_id, i8, ptr, [256 x ptr], ptr, i8, i32, i8, i32, i32, i32, ptr, ptr, %struct.nstime_t, %struct.nstime_t, %struct.nstime_t, i16, i8, i8, %struct._tap_rtp_stat_t, i8, ptr }
%struct._rtpstream_id = type { %struct._address, i16, %struct._address, i16, i32 }
%struct._address = type { i32, i32, ptr, ptr }
%struct.nstime_t = type { i64, i32 }
%struct._tap_rtp_stat_t = type { i8, i32, i16, i64, i64, double, [300 x %struct._bw_history_item], i16, i16, i32, i32, double, double, double, double, double, double, double, double, double, double, double, double, double, double, double, double, double, double, double, i32, i32, i32, i32, i32, i16, i32, i32, i32 }
%struct._bw_history_item = type { double, i32 }

; Function Attrs: inlinehint nounwind null_pointer_is_valid sspstrong uwtable
define internal void @clear_address(ptr noundef %0) #10 {
  %2 = alloca ptr, align 8
  store ptr %0, ptr %2, align 8
  %3 = load ptr, ptr %2, align 8
  %4 = getelementptr inbounds nuw %struct._address, ptr %3, i32 0, i32 0
  store i32 0, ptr %4, align 8
  %5 = load ptr, ptr %2, align 8
  %6 = getelementptr inbounds nuw %struct._address, ptr %5, i32 0, i32 1
  store i32 0, ptr %6, align 4
  %7 = load ptr, ptr %2, align 8
  %8 = getelementptr inbounds nuw %struct._address, ptr %7, i32 0, i32 2
  store ptr null, ptr %8, align 8
  %9 = load ptr, ptr %2, align 8
  %10 = getelementptr inbounds nuw %struct._address, ptr %9, i32 0, i32 3
  store ptr null, ptr %10, align 8
  ret void
}

; Function Attrs: inlinehint null_pointer_is_valid sspstrong uwtable
define internal void @alloc_address_wmem(ptr noundef %0, ptr noundef %1, i32 noundef %2, i32 noundef %3, ptr noundef %4) #8 {
  %6 = alloca ptr, align 8
  %7 = alloca ptr, align 8
  %8 = alloca i32, align 4
  %9 = alloca i32, align 4
  %10 = alloca ptr, align 8
  store ptr %0, ptr %6, align 8
  store ptr %1, ptr %7, align 8
  store i32 %2, ptr %8, align 4
  store i32 %3, ptr %9, align 4
  store ptr %4, ptr %10, align 8
  br label %11

11:                                               ; preds = %5
  br label %12

12:                                               ; preds = %11
  %13 = load ptr, ptr %7, align 8
  call void @clear_address(ptr noundef %13)
  %14 = load i32, ptr %8, align 4
  %15 = load ptr, ptr %7, align 8
  %16 = getelementptr inbounds nuw %struct._address, ptr %15, i32 0, i32 0
  store i32 %14, ptr %16, align 8
  %17 = load i32, ptr %9, align 4
  %18 = icmp eq i32 %17, 0
  br i1 %18, label %19, label %22

19:                                               ; preds = %12
  br label %20

20:                                               ; preds = %19
  br label %21

21:                                               ; preds = %20
  br label %39

22:                                               ; preds = %12
  br label %23

23:                                               ; preds = %22
  br label %24

24:                                               ; preds = %23
  br label %25

25:                                               ; preds = %24
  br label %26

26:                                               ; preds = %25
  %27 = load ptr, ptr %6, align 8
  %28 = load ptr, ptr %10, align 8
  %29 = load i32, ptr %9, align 4
  %30 = sext i32 %29 to i64
  %31 = call ptr @wmem_memdup(ptr noundef %27, ptr noundef %28, i64 noundef %30) #23
  %32 = load ptr, ptr %7, align 8
  %33 = getelementptr inbounds nuw %struct._address, ptr %32, i32 0, i32 3
  store ptr %31, ptr %33, align 8
  %34 = load ptr, ptr %7, align 8
  %35 = getelementptr inbounds nuw %struct._address, ptr %34, i32 0, i32 2
  store ptr %31, ptr %35, align 8
  %36 = load i32, ptr %9, align 4
  %37 = load ptr, ptr %7, align 8
  %38 = getelementptr inbounds nuw %struct._address, ptr %37, i32 0, i32 1
  store i32 %36, ptr %38, align 4
  br label %39

39:                                               ; preds = %26, %21
  ret void
}

; Function Attrs: inlinehint null_pointer_is_valid sspstrong uwtable
define internal void @copy_address_wmem(ptr noundef %0, ptr noundef %1, ptr noundef %2) #8 {
  %4 = alloca ptr, align 8
  %5 = alloca ptr, align 8
  %6 = alloca ptr, align 8
  store ptr %0, ptr %4, align 8
  store ptr %1, ptr %5, align 8
  store ptr %2, ptr %6, align 8
  %7 = load ptr, ptr %4, align 8
  %8 = load ptr, ptr %5, align 8
  %9 = load ptr, ptr %6, align 8
  %10 = getelementptr inbounds nuw %struct._address, ptr %9, i32 0, i32 0
  %11 = load i32, ptr %10, align 8
  %12 = load ptr, ptr %6, align 8
  %13 = getelementptr inbounds nuw %struct._address, ptr %12, i32 0, i32 1
  %14 = load i32, ptr %13, align 4
  %15 = load ptr, ptr %6, align 8
  %16 = getelementptr inbounds nuw %struct._address, ptr %15, i32 0, i32 2
  %17 = load ptr, ptr %16, align 8
  call void @alloc_address_wmem(ptr noundef %7, ptr noundef %8, i32 noundef %11, i32 noundef %14, ptr noundef %17)
  ret void
}

; Function Attrs: inlinehint null_pointer_is_valid sspstrong uwtable
define internal void @copy_address(ptr noundef %0, ptr noundef %1) #8 {
  %3 = alloca ptr, align 8
  %4 = alloca ptr, align 8
  store ptr %0, ptr %3, align 8
  store ptr %1, ptr %4, align 8
  %5 = load ptr, ptr %3, align 8
  %6 = load ptr, ptr %4, align 8
  call void @copy_address_wmem(ptr noundef null, ptr noundef %5, ptr noundef %6)
  ret void
}

; Function Attrs: null_pointer_is_valid sspstrong uwtable
define hidden void @rtpstream_info_copy_deep(ptr noundef %0, ptr noundef %1) #2 {
  %3 = alloca ptr, align 8
  %4 = alloca ptr, align 8
  store ptr %0, ptr %3, align 8
  store ptr %1, ptr %4, align 8
  %5 = load ptr, ptr %3, align 8
  %6 = load ptr, ptr %4, align 8
  call void @llvm.memcpy.p0.p0.i64(ptr align 8 %5, ptr align 8 %6, i64 7296, i1 false)
  %7 = load ptr, ptr %3, align 8
  %8 = getelementptr inbounds nuw %struct._rtpstream_info, ptr %7, i32 0, i32 0
  %9 = getelementptr inbounds nuw %struct._rtpstream_id, ptr %8, i32 0, i32 0
  %10 = load ptr, ptr %4, align 8
  %11 = getelementptr inbounds nuw %struct._rtpstream_info, ptr %10, i32 0, i32 0
  %12 = getelementptr inbounds nuw %struct._rtpstream_id, ptr %11, i32 0, i32 0
  call void @copy_address(ptr noundef %9, ptr noundef %12)
  %13 = load ptr, ptr %3, align 8
  %14 = getelementptr inbounds nuw %struct._rtpstream_info, ptr %13, i32 0, i32 0
  %15 = getelementptr inbounds nuw %struct._rtpstream_id, ptr %14, i32 0, i32 2
  %16 = load ptr, ptr %4, align 8
  %17 = getelementptr inbounds nuw %struct._rtpstream_info, ptr %16, i32 0, i32 0
  %18 = getelementptr inbounds nuw %struct._rtpstream_id, ptr %17, i32 0, i32 2
  call void @copy_address(ptr noundef %15, ptr noundef %18)
  %19 = load ptr, ptr %4, align 8
  %20 = getelementptr inbounds nuw %struct._rtpstream_info, ptr %19, i32 0, i32 4
  %21 = load ptr, ptr %20, align 8
  %22 = call noalias ptr @g_strdup(ptr noundef %21)
  %23 = load ptr, ptr %3, align 8
  %24 = getelementptr inbounds nuw %struct._rtpstream_info, ptr %23, i32 0, i32 4
  store ptr %22, ptr %24, align 8
  ret void
}

; Function Attrs: null_pointer_is_valid sspstrong uwtable
define hidden ptr @rtpstream_info_malloc_and_copy_deep(ptr noundef %0) #2 {
  %2 = alloca ptr, align 8
  %3 = alloca ptr, align 8
  %4 = alloca i64, align 8
  %5 = alloca i64, align 8
  %6 = alloca ptr, align 8
  %7 = alloca ptr, align 8
  store ptr %0, ptr %2, align 8
  call void @llvm.lifetime.start.p0(i64 8, ptr %3) #17
  call void @llvm.lifetime.start.p0(i64 8, ptr %4) #17
  store i64 1, ptr %4, align 8
  call void @llvm.lifetime.start.p0(i64 8, ptr %5) #17
  store i64 7296, ptr %5, align 8
  call void @llvm.lifetime.start.p0(i64 8, ptr %6) #17
  %8 = load i64, ptr %5, align 8
  %9 = icmp eq i64 %8, 1
  br i1 %9, label %10, label %13

10:                                               ; preds = %1
  %11 = load i64, ptr %4, align 8
  %12 = call noalias ptr @g_malloc(i64 noundef %11) #18
  store ptr %12, ptr %6, align 8
  br label %34

13:                                               ; preds = %1
  %14 = load i64, ptr %4, align 8
  %15 = call i1 @llvm.is.constant.i64(i64 %14)
  br i1 %15, label %16, label %29

16:                                               ; preds = %13
  %17 = load i64, ptr %5, align 8
  %18 = icmp eq i64 %17, 0
  br i1 %18, label %24, label %19

19:                                               ; preds = %16
  %20 = load i64, ptr %4, align 8
  %21 = load i64, ptr %5, align 8
  %22 = udiv i64 -1, %21
  %23 = icmp ule i64 %20, %22
  br i1 %23, label %24, label %29

24:                                               ; preds = %19, %16
  %25 = load i64, ptr %4, align 8
  %26 = load i64, ptr %5, align 8
  %27 = mul i64 %25, %26
  %28 = call noalias ptr @g_malloc(i64 noundef %27) #18
  store ptr %28, ptr %6, align 8
  br label %33

29:                                               ; preds = %19, %13
  %30 = load i64, ptr %4, align 8
  %31 = load i64, ptr %5, align 8
  %32 = call noalias ptr @g_malloc_n(i64 noundef %30, i64 noundef %31) #19
  store ptr %32, ptr %6, align 8
  br label %33

33:                                               ; preds = %29, %24
  br label %34

34:                                               ; preds = %33, %10
  %35 = load ptr, ptr %6, align 8
  store ptr %35, ptr %7, align 8
  call void @llvm.lifetime.end.p0(i64 8, ptr %6) #17
  call void @llvm.lifetime.end.p0(i64 8, ptr %5) #17
  call void @llvm.lifetime.end.p0(i64 8, ptr %4) #17
  %36 = load ptr, ptr %7, align 8
  store ptr %36, ptr %3, align 8
  %37 = load ptr, ptr %3, align 8
  %38 = load ptr, ptr %2, align 8
  call void @rtpstream_info_copy_deep(ptr noundef %37, ptr noundef %38)
  %39 = load ptr, ptr %3, align 8
  call void @llvm.lifetime.end.p0(i64 8, ptr %3) #17
  ret ptr %39
}