; Function Attrs: null_pointer_is_valid sspstrong uwtable
define hidden noalias noundef ptr @rtpstream_info_malloc_and_copy_deep(ptr noundef readonly captures(none) %0) local_unnamed_addr #1 {
  %2 = tail call noalias dereferenceable_or_null(7296) ptr @g_malloc(i64 noundef 7296) #18
  tail call void @llvm.memcpy.p0.p0.i64(ptr noundef align 8 dereferenceable(7296) %2, ptr noundef readonly align 8 dereferenceable(7296) %0, i64 7296, i1 false)
  %3 = load i32, ptr %0, align 8
  %4 = getelementptr inbounds nuw i8, ptr %0, i64 4
  %5 = load i32, ptr %4, align 4
  %6 = getelementptr inbounds nuw i8, ptr %0, i64 8
  %7 = load ptr, ptr %6, align 8
  tail call void @llvm.memset.p0.i64(ptr noundef align 8 dereferenceable(24) %2, i8 0, i64 24, i1 false)
  store i32 %3, ptr %2, align 8
  %8 = icmp eq i32 %5, 0
  br i1 %8, label %copy_address.exit.i, label %9

9:                                                ; preds = %1
  %10 = sext i32 %5 to i64
  %11 = tail call ptr @wmem_memdup(ptr noundef null, ptr noundef %7, i64 noundef %10) #19
  %12 = getelementptr inbounds nuw i8, ptr %2, i64 16
  store ptr %11, ptr %12, align 8
  %13 = getelementptr inbounds nuw i8, ptr %2, i64 8
  store ptr %11, ptr %13, align 8
  %14 = getelementptr inbounds nuw i8, ptr %2, i64 4
  store i32 %5, ptr %14, align 4
  br label %copy_address.exit.i

copy_address.exit.i:                              ; preds = %9, %1
  %15 = getelementptr inbounds nuw i8, ptr %2, i64 32
  %16 = getelementptr inbounds nuw i8, ptr %0, i64 32
  %17 = load i32, ptr %16, align 8
  %18 = getelementptr inbounds nuw i8, ptr %0, i64 36
  %19 = load i32, ptr %18, align 4
  %20 = getelementptr inbounds nuw i8, ptr %0, i64 40
  %21 = load ptr, ptr %20, align 8
  tail call void @llvm.memset.p0.i64(ptr noundef nonnull align 8 dereferenceable(24) %15, i8 0, i64 24, i1 false)
  store i32 %17, ptr %15, align 8
  %22 = icmp eq i32 %19, 0
  br i1 %22, label %rtpstream_info_copy_deep.exit, label %23

23:                                               ; preds = %copy_address.exit.i
  %24 = sext i32 %19 to i64
  %25 = tail call ptr @wmem_memdup(ptr noundef null, ptr noundef %21, i64 noundef %24) #19
  %26 = getelementptr inbounds nuw i8, ptr %2, i64 48
  store ptr %25, ptr %26, align 8
  %27 = getelementptr inbounds nuw i8, ptr %2, i64 40
  store ptr %25, ptr %27, align 8
  %28 = getelementptr inbounds nuw i8, ptr %2, i64 36
  store i32 %19, ptr %28, align 4
  br label %rtpstream_info_copy_deep.exit

rtpstream_info_copy_deep.exit:                    ; preds = %copy_address.exit.i, %23
  %29 = getelementptr inbounds nuw i8, ptr %0, i64 2128
  %30 = load ptr, ptr %29, align 8
  %31 = tail call noalias ptr @g_strdup(ptr noundef %30)
  %32 = getelementptr inbounds nuw i8, ptr %2, i64 2128
  store ptr %31, ptr %32, align 8
  ret ptr %2
}